target datalayout = "e-m:e-p270:32:32-p271:32:32-p272:64:64-i64:64-i128:128-f80:128-n8:16:32:64-S128"
target triple = "x86_64-pc-linux-gnu"

%"class.Ipopt::TNLPReducer" = type { %"class.Ipopt::TNLP.base", %"class.Ipopt::SmartPtr", i32, i32, i32, ptr, i32, ptr, i32, i32, i32, ptr, i32, ptr, i32, ptr, i32, ptr }
%"class.Ipopt::TNLP.base" = type { %"class.Ipopt::ReferencedObject.base" }
%"class.Ipopt::ReferencedObject.base" = type <{ ptr, i32 }>
%"class.Ipopt::SmartPtr" = type { ptr }

; Function Attrs: mustprogress nounwind uwtable
define linkonce_odr noundef ptr @_ZNK5Ipopt8SmartPtrINS_4TNLPEEptEv(ptr noundef nonnull align 8 dereferenceable(8) %0) #3 comdat align 2 {
  %2 = alloca ptr, align 8
  store ptr %0, ptr %2, align 8
  %3 = load ptr, ptr %2, align 8
  %4 = getelementptr inbounds %"class.Ipopt::SmartPtr", ptr %3, i32 0, i32 0
  %5 = load ptr, ptr %4, align 8
  ret ptr %5
}

; Function Attrs: mustprogress uwtable
define void @_ZN5Ipopt11TNLPReducer17finalize_solutionENS_12SolverReturnEiPKdS3_S3_iS3_S3_dPKNS_9IpoptDataEPNS_25IpoptCalculatedQuantitiesE(ptr noundef nonnull align 8 dereferenceable(136) %0, i32 noundef %1, i32 noundef %2, ptr noundef %3, ptr noundef %4, ptr noundef %5, i32 noundef %6, ptr noundef %7, ptr noundef %8, double noundef %9, ptr noundef %10, ptr noundef %11) unnamed_addr #0 align 2 {
  %13 = alloca ptr, align 8
  %14 = alloca i32, align 4
  %15 = alloca i32, align 4
  %16 = alloca ptr, align 8
  %17 = alloca ptr, align 8
  %18 = alloca ptr, align 8
  %19 = alloca i32, align 4
  %20 = alloca ptr, align 8
  %21 = alloca ptr, align 8
  %22 = alloca double, align 8
  %23 = alloca ptr, align 8
  %24 = alloca ptr, align 8
  %25 = alloca ptr, align 8
  %26 = alloca ptr, align 8
  %27 = alloca i32, align 4
  %28 = alloca ptr, align 8
  store ptr %0, ptr %13, align 8
  store i32 %1, ptr %14, align 4
  store i32 %2, ptr %15, align 4
  store ptr %3, ptr %16, align 8
  store ptr %4, ptr %17, align 8
  store ptr %5, ptr %18, align 8
  store i32 %6, ptr %19, align 4
  store ptr %7, ptr %20, align 8
  store ptr %8, ptr %21, align 8
  store double %9, ptr %22, align 8
  store ptr %10, ptr %23, align 8
  store ptr %11, ptr %24, align 8
  %29 = load ptr, ptr %13, align 8
  %30 = getelementptr inbounds %"class.Ipopt::TNLPReducer", ptr %29, i32 0, i32 2
  %31 = load i32, ptr %30, align 8
  %32 = sext i32 %31 to i64
  %33 = call { i64, i1 } @llvm.umul.with.overflow.i64(i64 %32, i64 8)
  %34 = extractvalue { i64, i1 } %33, 1
  %35 = extractvalue { i64, i1 } %33, 0
  %36 = select i1 %34, i64 -1, i64 %35
  %37 = call noalias noundef nonnull ptr @_Znam(i64 noundef %36) #8
  store ptr %37, ptr %25, align 8
  %38 = getelementptr inbounds %"class.Ipopt::TNLPReducer", ptr %29, i32 0, i32 2
  %39 = load i32, ptr %38, align 8
  %40 = sext i32 %39 to i64
  %41 = call { i64, i1 } @llvm.umul.with.overflow.i64(i64 %40, i64 8)
  %42 = extractvalue { i64, i1 } %41, 1
  %43 = extractvalue { i64, i1 } %41, 0
  %44 = select i1 %42, i64 -1, i64 %43
  %45 = call noalias noundef nonnull ptr @_Znam(i64 noundef %44) #8
  store ptr %45, ptr %26, align 8
  %46 = getelementptr inbounds %"class.Ipopt::TNLPReducer", ptr %29, i32 0, i32 1
  %47 = call noundef ptr @_ZNK5Ipopt8SmartPtrINS_4TNLPEEptEv(ptr noundef nonnull align 8 dereferenceable(8) %46)
  %48 = load i32, ptr %15, align 4
  %49 = load ptr, ptr %16, align 8
  %50 = getelementptr inbounds %"class.Ipopt::TNLPReducer", ptr %29, i32 0, i32 2
  %51 = load i32, ptr %50, align 8
  %52 = load ptr, ptr %25, align 8
  %53 = load ptr, ptr %47, align 8
  %54 = getelementptr inbounds ptr, ptr %53, i64 12
  %55 = load ptr, ptr %54, align 8
  %56 = call noundef zeroext i1 %55(ptr noundef nonnull align 8 dereferenceable(12) %47, i32 noundef %48, ptr noundef %49, i1 noundef zeroext true, i32 noundef %51, ptr noundef %52)
  store i32 0, ptr %27, align 4
  br label %57

57:                                               ; preds = %88, %12
  %58 = load i32, ptr %27, align 4
  %59 = getelementptr inbounds %"class.Ipopt::TNLPReducer", ptr %29, i32 0, i32 2
  %60 = load i32, ptr %59, align 8
  %61 = icmp slt i32 %58, %60
  br i1 %61, label %62, label %91

62:                                               ; preds = %57
  %63 = getelementptr inbounds %"class.Ipopt::TNLPReducer", ptr %29, i32 0, i32 7
  %64 = load ptr, ptr %63, align 8
  %65 = load i32, ptr %27, align 4
  %66 = sext i32 %65 to i64
  %67 = getelementptr inbounds i32, ptr %64, i64 %66
  store ptr %67, ptr %28, align 8
  %68 = load ptr, ptr %28, align 8
  %69 = load i32, ptr %68, align 4
  %70 = icmp sge i32 %69, 0
  br i1 %70, label %71, label %82

71:                                               ; preds = %62
  %72 = load ptr, ptr %21, align 8
  %73 = load ptr, ptr %28, align 8
  %74 = load i32, ptr %73, align 4
  %75 = sext i32 %74 to i64
  %76 = getelementptr inbounds double, ptr %72, i64 %75
  %77 = load double, ptr %76, align 8
  %78 = load ptr, ptr %26, align 8
  %79 = load i32, ptr %27, align 4
  %80 = sext i32 %79 to i64
  %81 = getelementptr inbounds double, ptr %78, i64 %80
  store double %77, ptr %81, align 8
  br label %87

82:                                               ; preds = %62
  %83 = load ptr, ptr %26, align 8
  %84 = load i32, ptr %27, align 4
  %85 = sext i32 %84 to i64
  %86 = getelementptr inbounds double, ptr %83, i64 %85
  store double 0.000000e+00, ptr %86, align 8
  br label %87

87:                                               ; preds = %82, %71
  br label %88

88:                                               ; preds = %87
  %89 = load i32, ptr %27, align 4
  %90 = add nsw i32 %89, 1
  store i32 %90, ptr %27, align 4
  br label %57, !llvm.loop !24

91:                                               ; preds = %57
  %92 = getelementptr inbounds %"class.Ipopt::TNLPReducer", ptr %29, i32 0, i32 1
  %93 = call noundef ptr @_ZNK5Ipopt8SmartPtrINS_4TNLPEEptEv(ptr noundef nonnull align 8 dereferenceable(8) %92)
  %94 = load i32, ptr %14, align 4
  %95 = load i32, ptr %15, align 4
  %96 = load ptr, ptr %16, align 8
  %97 = load ptr, ptr %17, align 8
  %98 = load ptr, ptr %18, align 8
  %99 = getelementptr inbounds %"class.Ipopt::TNLPReducer", ptr %29, i32 0, i32 2
  %100 = load i32, ptr %99, align 8
  %101 = load ptr, ptr %25, align 8
  %102 = load ptr, ptr %26, align 8
  %103 = load double, ptr %22, align 8
  %104 = load ptr, ptr %23, align 8
  %105 = load ptr, ptr %24, align 8
  %106 = load ptr, ptr %93, align 8
  %107 = getelementptr inbounds ptr, ptr %106, i64 17
  %108 = load ptr, ptr %107, align 8
  call void %108(ptr noundef nonnull align 8 dereferenceable(12) %93, i32 noundef %94, i32 noundef %95, ptr noundef %96, ptr noundef %97, ptr noundef %98, i32 noundef %100, ptr noundef %101, ptr noundef %102, double noundef %103, ptr noundef %104, ptr noundef %105)
  %109 = load ptr, ptr %26, align 8
  %110 = icmp eq ptr %109, null
  br i1 %110, label %112, label %111

111:                                              ; preds = %91
  call void @_ZdaPv(ptr noundef %109) #11
  br label %112

112:                                              ; preds = %111, %91
  %113 = load ptr, ptr %25, align 8
  %114 = icmp eq ptr %113, null
  br i1 %114, label %116, label %115

115:                                              ; preds = %112
  call void @_ZdaPv(ptr noundef %113) #11
  br label %116

116:                                              ; preds = %115, %112
  ret void
}