; Function Attrs: mustprogress uwtable
define void @_ZN5Ipopt11TNLPReducer17finalize_solutionENS_12SolverReturnEiPKdS3_S3_iS3_S3_dPKNS_9IpoptDataEPNS_25IpoptCalculatedQuantitiesE(ptr nocapture noundef nonnull readonly align 8 dereferenceable(136) %0, i32 noundef %1, i32 noundef %2, ptr noundef %3, ptr noundef %4, ptr noundef %5, i32 %6, ptr nocapture readnone %7, ptr nocapture noundef readonly %8, double noundef %9, ptr noundef %10, ptr noundef %11) unnamed_addr #0 align 2 {
  %13 = getelementptr inbounds i8, ptr %0, i64 24
  %14 = load i32, ptr %13, align 8
  %15 = sext i32 %14 to i64
  %16 = icmp slt i32 %14, 0
  %17 = shl nsw i64 %15, 3
  %18 = select i1 %16, i64 -1, i64 %17
  %19 = tail call noalias noundef nonnull ptr @_Znam(i64 noundef %18) #8
  %20 = tail call noalias noundef nonnull ptr @_Znam(i64 noundef %18) #8
  %21 = getelementptr inbounds i8, ptr %0, i64 16
  %22 = load ptr, ptr %21, align 8
  %23 = load ptr, ptr %22, align 8
  %24 = getelementptr inbounds i8, ptr %23, i64 96
  %25 = load ptr, ptr %24, align 8
  %26 = tail call noundef zeroext i1 %25(ptr noundef nonnull align 8 dereferenceable(12) %22, i32 noundef %2, ptr noundef %3, i1 noundef zeroext true, i32 noundef %14, ptr noundef nonnull %19)
  %27 = load i32, ptr %13, align 8
  %28 = icmp sgt i32 %27, 0
  br i1 %28, label %.lr.ph, label %._crit_edge

.lr.ph:                                           ; preds = %12
  %29 = getelementptr inbounds i8, ptr %0, i64 56
  %30 = load ptr, ptr %29, align 8
  %wide.trip.count = zext nneg i32 %27 to i64
  br label %31

31:                                               ; preds = %.lr.ph, %39
  %indvars.iv = phi i64 [ 0, %.lr.ph ], [ %indvars.iv.next, %39 ]
  %32 = getelementptr inbounds i32, ptr %30, i64 %indvars.iv
  %33 = load i32, ptr %32, align 4
  %34 = icmp sgt i32 %33, -1
  br i1 %34, label %35, label %39

35:                                               ; preds = %31
  %36 = zext nneg i32 %33 to i64
  %37 = getelementptr inbounds double, ptr %8, i64 %36
  %38 = load double, ptr %37, align 8
  br label %39

39:                                               ; preds = %31, %35
  %.sink = phi double [ %38, %35 ], [ 0.000000e+00, %31 ]
  %40 = getelementptr inbounds double, ptr %20, i64 %indvars.iv
  store double %.sink, ptr %40, align 8
  %indvars.iv.next = add nuw nsw i64 %indvars.iv, 1
  %exitcond.not = icmp eq i64 %indvars.iv.next, %wide.trip.count
  br i1 %exitcond.not, label %._crit_edge, label %31, !llvm.loop !24

._crit_edge:                                      ; preds = %39, %12
  %41 = load ptr, ptr %21, align 8
  %42 = load ptr, ptr %41, align 8
  %43 = getelementptr inbounds i8, ptr %42, i64 136
  %44 = load ptr, ptr %43, align 8
  tail call void %44(ptr noundef nonnull align 8 dereferenceable(12) %41, i32 noundef %1, i32 noundef %2, ptr noundef %3, ptr noundef %4, ptr noundef %5, i32 noundef %27, ptr noundef nonnull %19, ptr noundef nonnull %20, double noundef %9, ptr noundef %10, ptr noundef %11)
  tail call void @_ZdaPv(ptr noundef nonnull %20) #9
  tail call void @_ZdaPv(ptr noundef nonnull %19) #9
  ret void
}